target datalayout = "e-m:e-p270:32:32-p271:32:32-p272:64:64-i64:64-i128:128-f80:128-n8:16:32:64-S128"
target triple = "x86_64-pc-linux-gnu"

%struct.compiler_common = type { ptr, ptr, ptr, ptr, ptr, ptr, ptr, ptr, i32, i32, i32, i32, i32, i32, i32, i32, i32, i32, i32, ptr, i32, i32, i32, ptr, ptr, i64, i32, i32, i32, i32, i32, i32, i32, i32, i32, i32, i32, i32, i32, i32, i32, i32, i32, i64, ptr, i64, i64, ptr, ptr, ptr, ptr, ptr, ptr, ptr, ptr, ptr, ptr, ptr, ptr, ptr, ptr, ptr, ptr, ptr, ptr, ptr, ptr, ptr, ptr, ptr, ptr, ptr, ptr, i32, i32, i32, i32, i32, i32, ptr, ptr, ptr, ptr, ptr, ptr, ptr, ptr, ptr }

; Function Attrs: nounwind uwtable
define internal ptr @bracketend(ptr noundef %0) #0 {
  %2 = alloca ptr, align 8
  store ptr %0, ptr %2, align 8
  br label %3

3:                                                ; preds = %1
  br label %4

4:                                                ; preds = %3
  br label %5

5:                                                ; preds = %19, %4
  %6 = load ptr, ptr %2, align 8
  %7 = getelementptr inbounds i8, ptr %6, i64 1
  %8 = load i8, ptr %7, align 1
  %9 = zext i8 %8 to i32
  %10 = shl i32 %9, 8
  %11 = load ptr, ptr %2, align 8
  %12 = getelementptr inbounds i8, ptr %11, i64 2
  %13 = load i8, ptr %12, align 1
  %14 = zext i8 %13 to i32
  %15 = or i32 %10, %14
  %16 = load ptr, ptr %2, align 8
  %17 = zext i32 %15 to i64
  %18 = getelementptr inbounds i8, ptr %16, i64 %17
  store ptr %18, ptr %2, align 8
  br label %19

19:                                               ; preds = %5
  %20 = load ptr, ptr %2, align 8
  %21 = load i8, ptr %20, align 1
  %22 = zext i8 %21 to i32
  %23 = icmp eq i32 %22, 120
  br i1 %23, label %5, label %24

24:                                               ; preds = %19
  br label %25

25:                                               ; preds = %24
  br label %26

26:                                               ; preds = %25
  %27 = load ptr, ptr %2, align 8
  %28 = getelementptr inbounds i8, ptr %27, i64 3
  store ptr %28, ptr %2, align 8
  %29 = load ptr, ptr %2, align 8
  ret ptr %29
}

; Function Attrs: nounwind uwtable
define internal i32 @get_framesize(ptr noundef %0, ptr noundef %1, ptr noundef %2, i32 noundef %3, ptr noundef %4) #0 {
  %6 = alloca i32, align 4
  %7 = alloca ptr, align 8
  %8 = alloca ptr, align 8
  %9 = alloca ptr, align 8
  %10 = alloca i32, align 4
  %11 = alloca ptr, align 8
  %12 = alloca i32, align 4
  %13 = alloca i32, align 4
  %14 = alloca i32, align 4
  %15 = alloca i32, align 4
  %16 = alloca i32, align 4
  %17 = alloca i32, align 4
  store ptr %0, ptr %7, align 8
  store ptr %1, ptr %8, align 8
  store ptr %2, ptr %9, align 8
  store i32 %3, ptr %10, align 4
  store ptr %4, ptr %11, align 8
  store i32 0, ptr %12, align 4
  store i32 0, ptr %13, align 4
  store i32 0, ptr %14, align 4
  %18 = load i32, ptr %10, align 4
  store i32 %18, ptr %15, align 4
  %19 = load i32, ptr %10, align 4
  store i32 %19, ptr %16, align 4
  store i32 0, ptr %17, align 4
  %20 = load ptr, ptr %11, align 8
  store i32 0, ptr %20, align 4
  %21 = load ptr, ptr %9, align 8
  %22 = icmp eq ptr %21, null
  br i1 %22, label %23, label %49

23:                                               ; preds = %5
  %24 = load ptr, ptr %8, align 8
  %25 = call ptr @bracketend(ptr noundef %24)
  %26 = getelementptr inbounds i8, ptr %25, i64 -3
  store ptr %26, ptr %9, align 8
  %27 = load i32, ptr %10, align 4
  %28 = icmp ne i32 %27, 0
  br i1 %28, label %45, label %29

29:                                               ; preds = %23
  %30 = load ptr, ptr %8, align 8
  %31 = load i8, ptr %30, align 1
  %32 = zext i8 %31 to i32
  %33 = icmp eq i32 %32, 138
  br i1 %33, label %39, label %34

34:                                               ; preds = %29
  %35 = load ptr, ptr %8, align 8
  %36 = load i8, ptr %35, align 1
  %37 = zext i8 %36 to i32
  %38 = icmp eq i32 %37, 143
  br i1 %38, label %39, label %45

39:                                               ; preds = %34, %29
  %40 = load ptr, ptr %7, align 8
  %41 = getelementptr inbounds %struct.compiler_common, ptr %40, i32 0, i32 18
  %42 = load i32, ptr %41, align 8
  %43 = icmp ne i32 %42, 0
  %44 = select i1 %43, i32 5, i32 3
  store i32 %44, ptr %12, align 4
  store i32 %44, ptr %13, align 4
  store i32 1, ptr %17, align 4
  br label %45

45:                                               ; preds = %39, %34, %23
  %46 = load ptr, ptr %7, align 8
  %47 = load ptr, ptr %8, align 8
  %48 = call ptr @next_opcode(ptr noundef %46, ptr noundef %47)
  store ptr %48, ptr %8, align 8
  br label %49

49:                                               ; preds = %45, %5
  br label %50

50:                                               ; preds = %49
  br label %51

51:                                               ; preds = %50
  br label %52

52:                                               ; preds = %164, %51
  %53 = load ptr, ptr %8, align 8
  %54 = load ptr, ptr %9, align 8
  %55 = icmp ult ptr %53, %54
  br i1 %55, label %56, label %165

56:                                               ; preds = %52
  %57 = load ptr, ptr %8, align 8
  %58 = load i8, ptr %57, align 1
  %59 = zext i8 %58 to i32
  switch i32 %59, label %157 [
    i32 3, label %60
    i32 154, label %71
    i32 162, label %71
    i32 156, label %71
    i32 160, label %71
    i32 117, label %95
    i32 137, label %131
    i32 138, label %131
    i32 142, label %131
    i32 143, label %131
    i32 159, label %147
    i32 4, label %158
    i32 5, label %158
    i32 6, label %158
    i32 7, label %158
    i32 8, label %158
    i32 9, label %158
    i32 10, label %158
    i32 11, label %158
    i32 12, label %158
    i32 13, label %158
    i32 14, label %158
    i32 15, label %158
    i32 16, label %158
    i32 17, label %158
    i32 18, label %158
    i32 19, label %158
    i32 20, label %158
    i32 21, label %158
    i32 22, label %158
    i32 23, label %158
    i32 24, label %158
    i32 27, label %158
    i32 28, label %158
    i32 25, label %158
    i32 26, label %158
    i32 29, label %158
    i32 30, label %158
    i32 31, label %158
    i32 32, label %158
    i32 41, label %158
    i32 42, label %158
    i32 43, label %158
    i32 44, label %158
    i32 45, label %158
    i32 54, label %158
    i32 55, label %158
    i32 56, label %158
    i32 57, label %158
    i32 58, label %158
    i32 67, label %158
    i32 68, label %158
    i32 69, label %158
    i32 70, label %158
    i32 71, label %158
    i32 80, label %158
    i32 81, label %158
    i32 82, label %158
    i32 83, label %158
    i32 84, label %158
    i32 93, label %158
    i32 94, label %158
    i32 95, label %158
    i32 96, label %158
    i32 97, label %158
    i32 110, label %158
    i32 111, label %158
    i32 112, label %158
    i32 118, label %158
    i32 119, label %158
    i32 169, label %158
    i32 170, label %158
  ]

60:                                               ; preds = %56
  br label %61

61:                                               ; preds = %60
  br label %62

62:                                               ; preds = %61
  store i32 1, ptr %14, align 4
  %63 = load i32, ptr %15, align 4
  %64 = icmp ne i32 %63, 0
  br i1 %64, label %68, label %65

65:                                               ; preds = %62
  %66 = load i32, ptr %12, align 4
  %67 = add nsw i32 %66, 2
  store i32 %67, ptr %12, align 4
  store i32 1, ptr %15, align 4
  br label %68

68:                                               ; preds = %65, %62
  %69 = load ptr, ptr %8, align 8
  %70 = getelementptr inbounds i8, ptr %69, i64 1
  store ptr %70, ptr %8, align 8
  br label %164

71:                                               ; preds = %56, %56, %56, %56
  br label %72

72:                                               ; preds = %71
  br label %73

73:                                               ; preds = %72
  store i32 1, ptr %14, align 4
  %74 = load i32, ptr %16, align 4
  %75 = icmp ne i32 %74, 0
  br i1 %75, label %79, label %76

76:                                               ; preds = %73
  %77 = load i32, ptr %12, align 4
  %78 = add nsw i32 %77, 2
  store i32 %78, ptr %12, align 4
  store i32 1, ptr %16, align 4
  br label %79

79:                                               ; preds = %76, %73
  %80 = load ptr, ptr %7, align 8
  %81 = getelementptr inbounds %struct.compiler_common, ptr %80, i32 0, i32 17
  %82 = load i32, ptr %81, align 4
  %83 = icmp ne i32 %82, 0
  br i1 %83, label %84, label %86

84:                                               ; preds = %79
  %85 = load ptr, ptr %11, align 8
  store i32 1, ptr %85, align 4
  br label %86

86:                                               ; preds = %84, %79
  %87 = load ptr, ptr %8, align 8
  %88 = getelementptr inbounds i8, ptr %87, i64 1
  %89 = load i8, ptr %88, align 1
  %90 = zext i8 %89 to i32
  %91 = add nsw i32 3, %90
  %92 = load ptr, ptr %8, align 8
  %93 = sext i32 %91 to i64
  %94 = getelementptr inbounds i8, ptr %92, i64 %93
  store ptr %94, ptr %8, align 8
  br label %164

95:                                               ; preds = %56
  store i32 1, ptr %14, align 4
  %96 = load ptr, ptr %7, align 8
  %97 = getelementptr inbounds %struct.compiler_common, ptr %96, i32 0, i32 29
  %98 = load i32, ptr %97, align 4
  %99 = icmp ne i32 %98, 0
  br i1 %99, label %100, label %106

100:                                              ; preds = %95
  %101 = load i32, ptr %15, align 4
  %102 = icmp ne i32 %101, 0
  br i1 %102, label %106, label %103

103:                                              ; preds = %100
  %104 = load i32, ptr %12, align 4
  %105 = add nsw i32 %104, 2
  store i32 %105, ptr %12, align 4
  store i32 1, ptr %15, align 4
  br label %106

106:                                              ; preds = %103, %100, %95
  %107 = load ptr, ptr %7, align 8
  %108 = getelementptr inbounds %struct.compiler_common, ptr %107, i32 0, i32 16
  %109 = load i32, ptr %108, align 8
  %110 = icmp ne i32 %109, 0
  br i1 %110, label %111, label %117

111:                                              ; preds = %106
  %112 = load i32, ptr %16, align 4
  %113 = icmp ne i32 %112, 0
  br i1 %113, label %117, label %114

114:                                              ; preds = %111
  %115 = load i32, ptr %12, align 4
  %116 = add nsw i32 %115, 2
  store i32 %116, ptr %12, align 4
  store i32 1, ptr %16, align 4
  br label %117

117:                                              ; preds = %114, %111, %106
  %118 = load ptr, ptr %7, align 8
  %119 = getelementptr inbounds %struct.compiler_common, ptr %118, i32 0, i32 18
  %120 = load i32, ptr %119, align 8
  %121 = icmp ne i32 %120, 0
  br i1 %121, label %122, label %128

122:                                              ; preds = %117
  %123 = load i32, ptr %17, align 4
  %124 = icmp ne i32 %123, 0
  br i1 %124, label %128, label %125

125:                                              ; preds = %122
  %126 = load i32, ptr %12, align 4
  %127 = add nsw i32 %126, 2
  store i32 %127, ptr %12, align 4
  store i32 1, ptr %17, align 4
  br label %128

128:                                              ; preds = %125, %122, %117
  %129 = load ptr, ptr %8, align 8
  %130 = getelementptr inbounds i8, ptr %129, i64 3
  store ptr %130, ptr %8, align 8
  br label %164

131:                                              ; preds = %56, %56, %56, %56
  store i32 1, ptr %14, align 4
  %132 = load ptr, ptr %7, align 8
  %133 = getelementptr inbounds %struct.compiler_common, ptr %132, i32 0, i32 18
  %134 = load i32, ptr %133, align 8
  %135 = icmp ne i32 %134, 0
  br i1 %135, label %136, label %142

136:                                              ; preds = %131
  %137 = load i32, ptr %17, align 4
  %138 = icmp ne i32 %137, 0
  br i1 %138, label %142, label %139

139:                                              ; preds = %136
  %140 = load i32, ptr %12, align 4
  %141 = add nsw i32 %140, 2
  store i32 %141, ptr %12, align 4
  store i32 1, ptr %17, align 4
  br label %142

142:                                              ; preds = %139, %136, %131
  %143 = load i32, ptr %12, align 4
  %144 = add nsw i32 %143, 3
  store i32 %144, ptr %12, align 4
  %145 = load ptr, ptr %8, align 8
  %146 = getelementptr inbounds i8, ptr %145, i64 5
  store ptr %146, ptr %8, align 8
  br label %164

147:                                              ; preds = %56
  store i32 1, ptr %14, align 4
  %148 = load ptr, ptr %7, align 8
  %149 = getelementptr inbounds %struct.compiler_common, ptr %148, i32 0, i32 17
  %150 = load i32, ptr %149, align 4
  %151 = icmp ne i32 %150, 0
  br i1 %151, label %152, label %154

152:                                              ; preds = %147
  %153 = load ptr, ptr %11, align 8
  store i32 1, ptr %153, align 4
  br label %154

154:                                              ; preds = %152, %147
  %155 = load ptr, ptr %8, align 8
  %156 = getelementptr inbounds i8, ptr %155, i32 1
  store ptr %156, ptr %8, align 8
  br label %164

157:                                              ; preds = %56
  store i32 1, ptr %14, align 4
  br label %158

158:                                              ; preds = %157, %56, %56, %56, %56, %56, %56, %56, %56, %56, %56, %56, %56, %56, %56, %56, %56, %56, %56, %56, %56, %56, %56, %56, %56, %56, %56, %56, %56, %56, %56, %56, %56, %56, %56, %56, %56, %56, %56, %56, %56, %56, %56, %56, %56, %56, %56, %56, %56, %56, %56, %56, %56, %56, %56, %56, %56, %56, %56, %56, %56, %56
  %159 = load ptr, ptr %7, align 8
  %160 = load ptr, ptr %8, align 8
  %161 = call ptr @next_opcode(ptr noundef %159, ptr noundef %160)
  store ptr %161, ptr %8, align 8
  br label %162

162:                                              ; preds = %158
  br label %163

163:                                              ; preds = %162
  br label %164

164:                                              ; preds = %163, %154, %142, %128, %86, %68
  br label %52

165:                                              ; preds = %52
  %166 = load i32, ptr %13, align 4
  %167 = load i32, ptr %12, align 4
  %168 = icmp eq i32 %166, %167
  %169 = zext i1 %168 to i32
  %170 = sext i32 %169 to i64
  %171 = icmp ne i64 %170, 0
  br i1 %171, label %172, label %176

172:                                              ; preds = %165
  %173 = load i32, ptr %14, align 4
  %174 = icmp ne i32 %173, 0
  %175 = select i1 %174, i32 -1, i32 -2
  store i32 %175, ptr %6, align 4
  br label %186

176:                                              ; preds = %165
  %177 = load i32, ptr %12, align 4
  %178 = icmp sgt i32 %177, 0
  br i1 %178, label %179, label %182

179:                                              ; preds = %176
  %180 = load i32, ptr %12, align 4
  %181 = add nsw i32 %180, 1
  store i32 %181, ptr %6, align 4
  br label %186

182:                                              ; preds = %176
  %183 = load i32, ptr %14, align 4
  %184 = icmp ne i32 %183, 0
  %185 = select i1 %184, i32 -1, i32 -2
  store i32 %185, ptr %6, align 4
  br label %186

186:                                              ; preds = %182, %179, %172
  %187 = load i32, ptr %6, align 4
  ret i32 %187
}