; Function Attrs: nofree norecurse nosync nounwind memory(read, argmem: readwrite, inaccessiblemem: none) uwtable
define internal fastcc i32 @get_framesize(ptr nocapture noundef readonly %0, ptr noundef readonly %1, ptr noundef readnone %2, i32 noundef %3, ptr nocapture noundef writeonly %4) unnamed_addr #11 {
  store i32 0, ptr %4, align 4
  %6 = icmp eq ptr %2, null
  br i1 %6, label %.preheader, label %26

.preheader:                                       ; preds = %5, %.preheader
  %.0.i = phi ptr [ %15, %.preheader ], [ %1, %5 ]
  %7 = getelementptr inbounds i8, ptr %.0.i, i64 1
  %8 = load i8, ptr %7, align 1
  %9 = zext i8 %8 to i64
  %10 = shl nuw nsw i64 %9, 8
  %11 = getelementptr inbounds i8, ptr %.0.i, i64 2
  %12 = load i8, ptr %11, align 1
  %13 = zext i8 %12 to i64
  %14 = or disjoint i64 %10, %13
  %15 = getelementptr inbounds i8, ptr %.0.i, i64 %14
  %16 = load i8, ptr %15, align 1
  %17 = icmp eq i8 %16, 120
  br i1 %17, label %.preheader, label %bracketend.exit

bracketend.exit:                                  ; preds = %.preheader
  %.not = icmp eq i32 %3, 0
  br i1 %.not, label %18, label %24

18:                                               ; preds = %bracketend.exit
  %19 = load i8, ptr %1, align 1
  switch i8 %19, label %24 [
    i8 -118, label %20
    i8 -113, label %20
  ]

20:                                               ; preds = %18, %18
  %21 = getelementptr inbounds i8, ptr %0, i64 104
  %22 = load i32, ptr %21, align 8
  %.not82 = icmp eq i32 %22, 0
  %23 = select i1 %.not82, i32 3, i32 5
  br label %24

24:                                               ; preds = %18, %20, %bracketend.exit
  %.067 = phi i32 [ 0, %bracketend.exit ], [ %23, %20 ], [ 0, %18 ]
  %.0 = phi i32 [ 0, %bracketend.exit ], [ 1, %20 ], [ 0, %18 ]
  %25 = tail call fastcc ptr @next_opcode(ptr noundef %0, ptr noundef %1)
  br label %26

26:                                               ; preds = %24, %5
  %.079 = phi ptr [ %15, %24 ], [ %2, %5 ]
  %.076 = phi ptr [ %25, %24 ], [ %1, %5 ]
  %.168 = phi i32 [ %.067, %24 ], [ 0, %5 ]
  %.1 = phi i32 [ %.0, %24 ], [ 0, %5 ]
  %27 = icmp ult ptr %.076, %.079
  br i1 %27, label %.lr.ph, label %._crit_edge

.lr.ph:                                           ; preds = %26
  %28 = getelementptr inbounds i8, ptr %0, i64 100
  %29 = getelementptr inbounds i8, ptr %0, i64 104
  %30 = getelementptr inbounds i8, ptr %0, i64 172
  %31 = getelementptr inbounds i8, ptr %0, i64 96
  br label %32

32:                                               ; preds = %.lr.ph, %76
  %.299 = phi i32 [ %.1, %.lr.ph ], [ %.5, %76 ]
  %.05698 = phi i32 [ %3, %.lr.ph ], [ %.359, %76 ]
  %.06097 = phi i32 [ %3, %.lr.ph ], [ %.363, %76 ]
  %.06496 = phi i32 [ 0, %.lr.ph ], [ %.266, %76 ]
  %.27195 = phi i32 [ %.168, %.lr.ph ], [ %.9, %76 ]
  %.17794 = phi ptr [ %.076, %.lr.ph ], [ %.278, %76 ]
  %33 = load i8, ptr %.17794, align 1
  switch i8 %33, label %73 [
    i8 3, label %34
    i8 -102, label %37
    i8 -94, label %37
    i8 -100, label %37
    i8 -96, label %37
    i8 117, label %47
    i8 -119, label %61
    i8 -118, label %61
    i8 -114, label %61
    i8 -113, label %61
    i8 -97, label %68
    i8 4, label %74
    i8 5, label %74
    i8 6, label %74
    i8 7, label %74
    i8 8, label %74
    i8 9, label %74
    i8 10, label %74
    i8 11, label %74
    i8 12, label %74
    i8 13, label %74
    i8 14, label %74
    i8 15, label %74
    i8 16, label %74
    i8 17, label %74
    i8 18, label %74
    i8 19, label %74
    i8 20, label %74
    i8 21, label %74
    i8 22, label %74
    i8 23, label %74
    i8 24, label %74
    i8 27, label %74
    i8 28, label %74
    i8 25, label %74
    i8 26, label %74
    i8 29, label %74
    i8 30, label %74
    i8 31, label %74
    i8 32, label %74
    i8 41, label %74
    i8 42, label %74
    i8 43, label %74
    i8 44, label %74
    i8 45, label %74
    i8 54, label %74
    i8 55, label %74
    i8 56, label %74
    i8 57, label %74
    i8 58, label %74
    i8 67, label %74
    i8 68, label %74
    i8 69, label %74
    i8 70, label %74
    i8 71, label %74
    i8 80, label %74
    i8 81, label %74
    i8 82, label %74
    i8 83, label %74
    i8 84, label %74
    i8 93, label %74
    i8 94, label %74
    i8 95, label %74
    i8 96, label %74
    i8 97, label %74
    i8 110, label %74
    i8 111, label %74
    i8 112, label %74
    i8 118, label %74
    i8 119, label %74
    i8 -87, label %74
    i8 -86, label %74
  ]

34:                                               ; preds = %32
  %.not88 = icmp eq i32 %.06097, 0
  %35 = add nsw i32 %.27195, 2
  %spec.select = select i1 %.not88, i32 %35, i32 %.27195
  %36 = getelementptr inbounds i8, ptr %.17794, i64 1
  br label %76

37:                                               ; preds = %32, %32, %32, %32
  %.not86 = icmp eq i32 %.05698, 0
  %38 = add nsw i32 %.27195, 2
  %spec.select89 = select i1 %.not86, i32 %38, i32 %.27195
  %39 = load i32, ptr %28, align 4
  %.not87 = icmp eq i32 %39, 0
  br i1 %.not87, label %41, label %40

40:                                               ; preds = %37
  store i32 1, ptr %4, align 4
  br label %41

41:                                               ; preds = %40, %37
  %42 = getelementptr inbounds i8, ptr %.17794, i64 1
  %43 = load i8, ptr %42, align 1
  %44 = zext i8 %43 to i64
  %45 = add nuw nsw i64 %44, 3
  %46 = getelementptr inbounds i8, ptr %.17794, i64 %45
  br label %76

47:                                               ; preds = %32
  %48 = load i32, ptr %30, align 4
  %49 = icmp eq i32 %48, 0
  %50 = icmp ne i32 %.06097, 0
  %or.cond = select i1 %49, i1 true, i1 %50
  %51 = add nsw i32 %.27195, 2
  %spec.select90 = select i1 %or.cond, i32 %.27195, i32 %51
  %spec.select91 = select i1 %or.cond, i32 %.06097, i32 1
  %52 = load i32, ptr %31, align 8
  %53 = icmp eq i32 %52, 0
  %54 = icmp ne i32 %.05698, 0
  %or.cond3 = select i1 %53, i1 true, i1 %54
  %55 = add nsw i32 %spec.select90, 2
  %.6 = select i1 %or.cond3, i32 %spec.select90, i32 %55
  %.258 = select i1 %or.cond3, i32 %.05698, i32 1
  %56 = load i32, ptr %29, align 8
  %57 = icmp eq i32 %56, 0
  %58 = icmp ne i32 %.299, 0
  %or.cond5 = select i1 %57, i1 true, i1 %58
  %59 = add nsw i32 %.6, 2
  %.7 = select i1 %or.cond5, i32 %.6, i32 %59
  %.3 = select i1 %or.cond5, i32 %.299, i32 1
  %60 = getelementptr inbounds i8, ptr %.17794, i64 3
  br label %76

61:                                               ; preds = %32, %32, %32, %32
  %62 = load i32, ptr %29, align 8
  %63 = icmp eq i32 %62, 0
  %64 = icmp ne i32 %.299, 0
  %or.cond7 = select i1 %63, i1 true, i1 %64
  %65 = add nsw i32 %.27195, 2
  %spec.select92 = select i1 %or.cond7, i32 %.27195, i32 %65
  %spec.select93 = select i1 %or.cond7, i32 %.299, i32 1
  %66 = add nsw i32 %spec.select92, 3
  %67 = getelementptr inbounds i8, ptr %.17794, i64 5
  br label %76

68:                                               ; preds = %32
  %69 = load i32, ptr %28, align 4
  %.not85 = icmp eq i32 %69, 0
  br i1 %.not85, label %71, label %70

70:                                               ; preds = %68
  store i32 1, ptr %4, align 4
  br label %71

71:                                               ; preds = %70, %68
  %72 = getelementptr inbounds i8, ptr %.17794, i64 1
  br label %76

73:                                               ; preds = %32
  br label %74

74:                                               ; preds = %73, %32, %32, %32, %32, %32, %32, %32, %32, %32, %32, %32, %32, %32, %32, %32, %32, %32, %32, %32, %32, %32, %32, %32, %32, %32, %32, %32, %32, %32, %32, %32, %32, %32, %32, %32, %32, %32, %32, %32, %32, %32, %32, %32, %32, %32, %32, %32, %32, %32, %32, %32, %32, %32, %32, %32, %32, %32, %32, %32, %32, %32
  %.165 = phi i32 [ 1, %73 ], [ %.06496, %32 ], [ %.06496, %32 ], [ %.06496, %32 ], [ %.06496, %32 ], [ %.06496, %32 ], [ %.06496, %32 ], [ %.06496, %32 ], [ %.06496, %32 ], [ %.06496, %32 ], [ %.06496, %32 ], [ %.06496, %32 ], [ %.06496, %32 ], [ %.06496, %32 ], [ %.06496, %32 ], [ %.06496, %32 ], [ %.06496, %32 ], [ %.06496, %32 ], [ %.06496, %32 ], [ %.06496, %32 ], [ %.06496, %32 ], [ %.06496, %32 ], [ %.06496, %32 ], [ %.06496, %32 ], [ %.06496, %32 ], [ %.06496, %32 ], [ %.06496, %32 ], [ %.06496, %32 ], [ %.06496, %32 ], [ %.06496, %32 ], [ %.06496, %32 ], [ %.06496, %32 ], [ %.06496, %32 ], [ %.06496, %32 ], [ %.06496, %32 ], [ %.06496, %32 ], [ %.06496, %32 ], [ %.06496, %32 ], [ %.06496, %32 ], [ %.06496, %32 ], [ %.06496, %32 ], [ %.06496, %32 ], [ %.06496, %32 ], [ %.06496, %32 ], [ %.06496, %32 ], [ %.06496, %32 ], [ %.06496, %32 ], [ %.06496, %32 ], [ %.06496, %32 ], [ %.06496, %32 ], [ %.06496, %32 ], [ %.06496, %32 ], [ %.06496, %32 ], [ %.06496, %32 ], [ %.06496, %32 ], [ %.06496, %32 ], [ %.06496, %32 ], [ %.06496, %32 ], [ %.06496, %32 ], [ %.06496, %32 ], [ %.06496, %32 ], [ %.06496, %32 ]
  %75 = tail call fastcc ptr @next_opcode(ptr noundef %0, ptr noundef nonnull %.17794)
  br label %76

76:                                               ; preds = %74, %71, %61, %47, %41, %34
  %.278 = phi ptr [ %75, %74 ], [ %72, %71 ], [ %67, %61 ], [ %60, %47 ], [ %46, %41 ], [ %36, %34 ]
  %.9 = phi i32 [ %.27195, %74 ], [ %.27195, %71 ], [ %66, %61 ], [ %.7, %47 ], [ %spec.select89, %41 ], [ %spec.select, %34 ]
  %.266 = phi i32 [ %.165, %74 ], [ 1, %71 ], [ 1, %61 ], [ 1, %47 ], [ 1, %41 ], [ 1, %34 ]
  %.363 = phi i32 [ %.06097, %74 ], [ %.06097, %71 ], [ %.06097, %61 ], [ %spec.select91, %47 ], [ %.06097, %41 ], [ 1, %34 ]
  %.359 = phi i32 [ %.05698, %74 ], [ %.05698, %71 ], [ %.05698, %61 ], [ %.258, %47 ], [ 1, %41 ], [ %.05698, %34 ]
  %.5 = phi i32 [ %.299, %74 ], [ %.299, %71 ], [ %spec.select93, %61 ], [ %.3, %47 ], [ %.299, %41 ], [ %.299, %34 ]
  %77 = icmp ult ptr %.278, %.079
  br i1 %77, label %32, label %._crit_edge.loopexit

._crit_edge.loopexit:                             ; preds = %76
  %78 = icmp eq i32 %.266, 0
  %79 = select i1 %78, i32 -2, i32 -1
  br label %._crit_edge

._crit_edge:                                      ; preds = %._crit_edge.loopexit, %26
  %.271.lcssa = phi i32 [ %.168, %26 ], [ %.9, %._crit_edge.loopexit ]
  %.064.lcssa = phi i32 [ -2, %26 ], [ %79, %._crit_edge.loopexit ]
  %80 = icmp ne i32 %.168, %.271.lcssa
  %81 = icmp sgt i32 %.271.lcssa, 0
  %or.cond101 = and i1 %80, %81
  %82 = add nuw nsw i32 %.271.lcssa, 1
  %.075 = select i1 %or.cond101, i32 %82, i32 %.064.lcssa
  ret i32 %.075
}